target datalayout = "e-m:e-p270:32:32-p271:32:32-p272:64:64-i64:64-i128:128-f80:128-n8:16:32:64-S128"
target triple = "x86_64-pc-linux-gnu"

; Function Attrs: inlinehint nounwind null_pointer_is_valid sspstrong uwtable
define internal zeroext i16 @pntoh16(ptr noundef %0) #7 {
  %2 = alloca ptr, align 8
  store ptr %0, ptr %2, align 8
  %3 = load ptr, ptr %2, align 8
  %4 = getelementptr i8, ptr %3, i64 0
  %5 = load i8, ptr %4, align 1
  %6 = zext i8 %5 to i16
  %7 = zext i16 %6 to i32
  %8 = shl i32 %7, 8
  %9 = load ptr, ptr %2, align 8
  %10 = getelementptr i8, ptr %9, i64 1
  %11 = load i8, ptr %10, align 1
  %12 = zext i8 %11 to i16
  %13 = zext i16 %12 to i32
  %14 = shl i32 %13, 0
  %15 = or i32 %8, %14
  %16 = trunc i32 %15 to i16
  ret i16 %16
}

; Function Attrs: inlinehint nounwind null_pointer_is_valid sspstrong uwtable
define internal zeroext i16 @pletoh16(ptr noundef %0) #7 {
  %2 = alloca ptr, align 8
  store ptr %0, ptr %2, align 8
  %3 = load ptr, ptr %2, align 8
  %4 = getelementptr i8, ptr %3, i64 1
  %5 = load i8, ptr %4, align 1
  %6 = zext i8 %5 to i16
  %7 = zext i16 %6 to i32
  %8 = shl i32 %7, 8
  %9 = load ptr, ptr %2, align 8
  %10 = getelementptr i8, ptr %9, i64 0
  %11 = load i8, ptr %10, align 1
  %12 = zext i8 %11 to i16
  %13 = zext i16 %12 to i32
  %14 = shl i32 %13, 0
  %15 = or i32 %8, %14
  %16 = trunc i32 %15 to i16
  ret i16 %16
}

; Function Attrs: null_pointer_is_valid sspstrong uwtable
define signext i16 @tvb_get_ntohis(ptr noundef %0, i32 noundef %1) #0 {
  %3 = alloca ptr, align 8
  %4 = alloca i32, align 4
  %5 = alloca ptr, align 8
  store ptr %0, ptr %3, align 8
  store i32 %1, ptr %4, align 4
  call void @llvm.lifetime.start.p0(i64 8, ptr %5) #16
  %6 = load ptr, ptr %3, align 8
  %7 = load i32, ptr %4, align 4
  %8 = call ptr @fast_ensure_contiguous(ptr noundef %6, i32 noundef %7, i32 noundef 2)
  store ptr %8, ptr %5, align 8
  %9 = load ptr, ptr %5, align 8
  %10 = call zeroext i16 @pntoh16(ptr noundef %9)
  call void @llvm.lifetime.end.p0(i64 8, ptr %5) #16
  ret i16 %10
}

; Function Attrs: null_pointer_is_valid sspstrong uwtable
define signext i16 @tvb_get_letohis(ptr noundef %0, i32 noundef %1) #0 {
  %3 = alloca ptr, align 8
  %4 = alloca i32, align 4
  %5 = alloca ptr, align 8
  store ptr %0, ptr %3, align 8
  store i32 %1, ptr %4, align 4
  call void @llvm.lifetime.start.p0(i64 8, ptr %5) #16
  %6 = load ptr, ptr %3, align 8
  %7 = load i32, ptr %4, align 4
  %8 = call ptr @fast_ensure_contiguous(ptr noundef %6, i32 noundef %7, i32 noundef 2)
  store ptr %8, ptr %5, align 8
  %9 = load ptr, ptr %5, align 8
  %10 = call zeroext i16 @pletoh16(ptr noundef %9)
  call void @llvm.lifetime.end.p0(i64 8, ptr %5) #16
  ret i16 %10
}

; Function Attrs: null_pointer_is_valid sspstrong uwtable
define signext i16 @tvb_get_int16(ptr noundef %0, i32 noundef %1, i32 noundef %2) #0 {
  %4 = alloca i16, align 2
  %5 = alloca ptr, align 8
  %6 = alloca i32, align 4
  %7 = alloca i32, align 4
  store ptr %0, ptr %5, align 8
  store i32 %1, ptr %6, align 4
  store i32 %2, ptr %7, align 4
  %8 = load i32, ptr %7, align 4
  %9 = and i32 %8, -2147483648
  %10 = icmp ne i32 %9, 0
  br i1 %10, label %11, label %15

11:                                               ; preds = %3
  %12 = load ptr, ptr %5, align 8
  %13 = load i32, ptr %6, align 4
  %14 = call signext i16 @tvb_get_letohis(ptr noundef %12, i32 noundef %13)
  store i16 %14, ptr %4, align 2
  br label %19

15:                                               ; preds = %3
  %16 = load ptr, ptr %5, align 8
  %17 = load i32, ptr %6, align 4
  %18 = call signext i16 @tvb_get_ntohis(ptr noundef %16, i32 noundef %17)
  store i16 %18, ptr %4, align 2
  br label %19

19:                                               ; preds = %15, %11
  %20 = load i16, ptr %4, align 2
  ret i16 %20
}