; Function Attrs: null_pointer_is_valid sspstrong uwtable
define signext i16 @tvb_get_int16(ptr noundef %0, i32 noundef %1, i32 noundef %2) local_unnamed_addr #0 {
  %.not = icmp sgt i32 %2, -1
  %4 = tail call fastcc ptr @fast_ensure_contiguous(ptr noundef %0, i32 noundef %1, i32 noundef 2)
  br i1 %.not, label %6, label %5

5:                                                ; preds = %3
  %.val.i = load i16, ptr %4, align 1
  br label %12

6:                                                ; preds = %3
  %.val.i5 = load i8, ptr %4, align 1
  %7 = getelementptr i8, ptr %4, i64 1
  %.val2.i = load i8, ptr %7, align 1
  %8 = zext i8 %.val.i5 to i16
  %9 = shl nuw i16 %8, 8
  %10 = zext i8 %.val2.i to i16
  %11 = or disjoint i16 %9, %10
  br label %12

12:                                               ; preds = %6, %5
  %.0 = phi i16 [ %.val.i, %5 ], [ %11, %6 ]
  ret i16 %.0
}